; Function Attrs: mustprogress uwtable
define void @_ZN8proxygen17HTTPParallelCodecC2ENS_18TransportDirectionE(ptr noundef nonnull align 8 dereferenceable(92) %this, i8 noundef zeroext %direction) unnamed_addr #3 align 2 personality ptr @__gxx_personality_v0 {
entry:
  %ref.tmp = alloca %"class.google::LogMessageFatal", align 8
  store ptr getelementptr inbounds ({ [56 x ptr] }, ptr @_ZTVN8proxygen17HTTPParallelCodecE, i64 0, i32 0, i64 2), ptr %this, align 8
  %transportDirection_ = getelementptr inbounds i8, ptr %this, i64 8
  store i8 %direction, ptr %transportDirection_, align 8
  %lastStreamID_ = getelementptr inbounds i8, ptr %this, i64 24
  %ingressGoawayAck_ = getelementptr inbounds i8, ptr %this, i64 40
  tail call void @llvm.memset.p0.i64(ptr noundef nonnull align 8 dereferenceable(16) %lastStreamID_, i8 0, i64 16, i1 false)
  store i64 4294967295, ptr %ingressGoawayAck_, align 8
  %egressGoawayAck_ = getelementptr inbounds i8, ptr %this, i64 48
  store i64 4294967295, ptr %egressGoawayAck_, align 8
  %goawayErrorMessage_ = getelementptr inbounds i8, ptr %this, i64 56
  tail call void @_ZNSt7__cxx1112basic_stringIcSt11char_traitsIcESaIcEEC1Ev(ptr noundef nonnull align 8 dereferenceable(32) %goawayErrorMessage_) #12
  %sessionClosing_ = getelementptr inbounds i8, ptr %this, i64 88
  store i32 0, ptr %sessionClosing_, align 8
  %0 = load i8, ptr %transportDirection_, align 8
  switch i8 %0, label %sw.default [
    i8 0, label %sw.epilog
    i8 1, label %sw.bb5
  ]

sw.bb5:                                           ; preds = %entry
  br label %sw.epilog

sw.default:                                       ; preds = %entry
  invoke void @_ZN6google15LogMessageFatalC1EPKci(ptr noundef nonnull align 8 dereferenceable(96) %ref.tmp, ptr noundef nonnull @.str, i32 noundef 28)
          to label %invoke.cont unwind label %lpad

invoke.cont:                                      ; preds = %sw.default
  %call9 = invoke noundef nonnull align 8 dereferenceable(8) ptr @_ZN6google10LogMessage6streamEv(ptr noundef nonnull align 8 dereferenceable(96) %ref.tmp)
          to label %invoke.cont8 unwind label %lpad7

invoke.cont8:                                     ; preds = %invoke.cont
  %call11 = invoke noundef nonnull align 8 dereferenceable(8) ptr @_ZStlsISt11char_traitsIcEERSt13basic_ostreamIcT_ES5_PKc(ptr noundef nonnull align 8 dereferenceable(8) %call9, ptr noundef nonnull @.str.1)
          to label %invoke.cont10 unwind label %lpad7

invoke.cont10:                                    ; preds = %invoke.cont8
  call void @_ZN6google15LogMessageFatalD1Ev(ptr noundef nonnull align 8 dereferenceable(96) %ref.tmp) #13
  unreachable

lpad:                                             ; preds = %sw.default
  %1 = landingpad { ptr, i32 }
          cleanup
  call void @_ZNSt7__cxx1112basic_stringIcSt11char_traitsIcESaIcEED1Ev(ptr noundef nonnull align 8 dereferenceable(32) %goawayErrorMessage_) #12
  resume { ptr, i32 } %1

lpad7:                                            ; preds = %invoke.cont8, %invoke.cont
  %2 = landingpad { ptr, i32 }
          cleanup
  call void @_ZN6google15LogMessageFatalD1Ev(ptr noundef nonnull align 8 dereferenceable(96) %ref.tmp) #13
  unreachable

sw.epilog:                                        ; preds = %entry, %sw.bb5
  %.sink = phi i64 [ 1, %sw.bb5 ], [ 2, %entry ]
  %nextEgressStreamID_6 = getelementptr inbounds i8, ptr %this, i64 16
  store i64 %.sink, ptr %nextEgressStreamID_6, align 8
  ret void
}